target datalayout = "e-m:e-p270:32:32-p271:32:32-p272:64:64-i64:64-i128:128-f80:128-n8:16:32:64-S128"
target triple = "x86_64-pc-linux-gnu"

@hf_netb_termination_indicator = internal global i32 0, align 4
@hf_netb_local_ses_no = internal global i32 0, align 4
@hf_netb_remote_ses_no = internal global i32 0, align 4

; Function Attrs: nounwind uwtable
define internal zeroext i8 @nb_local_session(ptr noundef %0, i32 noundef %1, ptr noundef %2) #0 {
  %4 = alloca ptr, align 8
  %5 = alloca i32, align 4
  %6 = alloca ptr, align 8
  %7 = alloca i8, align 1
  store ptr %0, ptr %4, align 8
  store i32 %1, ptr %5, align 4
  store ptr %2, ptr %6, align 8
  %8 = load ptr, ptr %4, align 8
  %9 = load i32, ptr %5, align 4
  %10 = add i32 %9, 13
  %11 = call zeroext i8 @tvb_get_guint8(ptr noundef %8, i32 noundef %10)
  store i8 %11, ptr %7, align 1
  %12 = load ptr, ptr %6, align 8
  %13 = load i32, ptr @hf_netb_local_ses_no, align 4
  %14 = load ptr, ptr %4, align 8
  %15 = load i32, ptr %5, align 4
  %16 = add i32 %15, 13
  %17 = load i8, ptr %7, align 1
  %18 = zext i8 %17 to i32
  %19 = call ptr @proto_tree_add_uint(ptr noundef %12, i32 noundef %13, ptr noundef %14, i32 noundef %16, i32 noundef 1, i32 noundef %18)
  %20 = load i8, ptr %7, align 1
  ret i8 %20
}

; Function Attrs: nounwind uwtable
define internal zeroext i8 @nb_remote_session(ptr noundef %0, i32 noundef %1, ptr noundef %2) #0 {
  %4 = alloca ptr, align 8
  %5 = alloca i32, align 4
  %6 = alloca ptr, align 8
  %7 = alloca i8, align 1
  store ptr %0, ptr %4, align 8
  store i32 %1, ptr %5, align 4
  store ptr %2, ptr %6, align 8
  %8 = load ptr, ptr %4, align 8
  %9 = load i32, ptr %5, align 4
  %10 = add i32 %9, 12
  %11 = call zeroext i8 @tvb_get_guint8(ptr noundef %8, i32 noundef %10)
  store i8 %11, ptr %7, align 1
  %12 = load ptr, ptr %6, align 8
  %13 = load i32, ptr @hf_netb_remote_ses_no, align 4
  %14 = load ptr, ptr %4, align 8
  %15 = load i32, ptr %5, align 4
  %16 = add i32 %15, 12
  %17 = load i8, ptr %7, align 1
  %18 = zext i8 %17 to i32
  %19 = call ptr @proto_tree_add_uint(ptr noundef %12, i32 noundef %13, ptr noundef %14, i32 noundef %16, i32 noundef 1, i32 noundef %18)
  %20 = load i8, ptr %7, align 1
  ret i8 %20
}

; Function Attrs: nounwind uwtable
define internal void @nb_data2(i32 noundef %0, ptr noundef %1, i32 noundef %2, ptr noundef %3) #0 {
  %5 = alloca i32, align 4
  %6 = alloca ptr, align 8
  %7 = alloca i32, align 4
  %8 = alloca ptr, align 8
  store i32 %0, ptr %5, align 4
  store ptr %1, ptr %6, align 8
  store i32 %2, ptr %7, align 4
  store ptr %3, ptr %8, align 8
  %9 = load ptr, ptr %8, align 8
  %10 = load i32, ptr %5, align 4
  %11 = load ptr, ptr %6, align 8
  %12 = load i32, ptr %7, align 4
  %13 = add i32 %12, 6
  %14 = call ptr @proto_tree_add_item(ptr noundef %9, i32 noundef %10, ptr noundef %11, i32 noundef %13, i32 noundef 2, i32 noundef -2147483648)
  ret void
}

; Function Attrs: nounwind uwtable
define internal i32 @dissect_netb_session_end(ptr noundef %0, ptr noundef %1, i32 noundef %2, ptr noundef %3) #0 {
  %5 = alloca ptr, align 8
  %6 = alloca ptr, align 8
  %7 = alloca i32, align 4
  %8 = alloca ptr, align 8
  store ptr %0, ptr %5, align 8
  store ptr %1, ptr %6, align 8
  store i32 %2, ptr %7, align 4
  store ptr %3, ptr %8, align 8
  %9 = load i32, ptr @hf_netb_termination_indicator, align 4
  %10 = load ptr, ptr %5, align 8
  %11 = load i32, ptr %7, align 4
  %12 = load ptr, ptr %8, align 8
  call void @nb_data2(i32 noundef %9, ptr noundef %10, i32 noundef %11, ptr noundef %12)
  %13 = load ptr, ptr %5, align 8
  %14 = load i32, ptr %7, align 4
  %15 = load ptr, ptr %8, align 8
  %16 = call zeroext i8 @nb_remote_session(ptr noundef %13, i32 noundef %14, ptr noundef %15)
  %17 = load ptr, ptr %5, align 8
  %18 = load i32, ptr %7, align 4
  %19 = load ptr, ptr %8, align 8
  %20 = call zeroext i8 @nb_local_session(ptr noundef %17, i32 noundef %18, ptr noundef %19)
  ret i32 0
}