; Function Attrs: nounwind uwtable
define internal noundef i32 @dissect_netb_session_end(ptr noundef %0, ptr readnone captures(none) %1, i32 noundef %2, ptr noundef %3) #1 {
  %5 = load i32, ptr @hf_netb_termination_indicator, align 4
  %6 = add i32 %2, 6
  %7 = tail call ptr @proto_tree_add_item(ptr noundef %3, i32 noundef %5, ptr noundef %0, i32 noundef %6, i32 noundef 2, i32 noundef -2147483648) #6
  %8 = add i32 %2, 12
  %9 = tail call zeroext i8 @tvb_get_guint8(ptr noundef %0, i32 noundef %8) #6
  %10 = load i32, ptr @hf_netb_remote_ses_no, align 4
  %11 = zext i8 %9 to i32
  %12 = tail call ptr @proto_tree_add_uint(ptr noundef %3, i32 noundef %10, ptr noundef %0, i32 noundef %8, i32 noundef 1, i32 noundef %11) #6
  %13 = add i32 %2, 13
  %14 = tail call zeroext i8 @tvb_get_guint8(ptr noundef %0, i32 noundef %13) #6
  %15 = load i32, ptr @hf_netb_local_ses_no, align 4
  %16 = zext i8 %14 to i32
  %17 = tail call ptr @proto_tree_add_uint(ptr noundef %3, i32 noundef %15, ptr noundef %0, i32 noundef %13, i32 noundef 1, i32 noundef %16) #6
  ret i32 0
}